(dp0
S'global'
p1
(i__main__
activation_record
p2
(dp3
S'total'
p4
I0
sS'label'
p5
g1
sS'data'
p6
(dp7
sS'ret_value_addr'
p8
NsS'previous'
p9
NsbsS'main'
p10
(i__main__
activation_record
p11
(dp12
g4
I32
sg5
g10
sg6
(dp13
S'var_15'
p14
(dp15
S'width'
p16
I4
sS'func_offset'
p17
I32
sS'isf'
p18
I0
sS'isreg'
p19
I-1
sg5
g10
ssS'var_14'
p20
(dp21
g16
I4
sg17
I28
sg18
I0
sg19
I-1
sg5
g10
ssS'var_13'
p22
(dp23
g16
I4
sg17
I24
sg18
I0
sg19
I-1
sg5
g10
ssS'var_12'
p24
(dp25
g16
I4
sg17
I20
sg18
I0
sg19
I-1
sg5
g10
ssS'var_11'
p26
(dp27
g16
I4
sg17
I16
sg18
I0
sg19
I-1
sg5
g10
ssS'var_10'
p28
(dp29
g16
I4
sg17
I12
sg18
I0
sg19
I-1
sg5
g10
ssS'var_9'
p30
(dp31
g16
I4
sg17
I8
sg18
I0
sg19
I-1
sg5
g10
ssS'var_8'
p32
(dp33
g16
I4
sg17
I4
sg18
I0
sg19
I-1
sg5
g10
sssg8
I-8
sg9
g2
sbsS'bst_insert'
p34
(i__main__
activation_record
p35
(dp36
g4
I20
sg5
g34
sg6
(dp37
S'var_7'
p38
(dp39
g16
I4
sg17
I20
sg18
I0
sg19
I-1
sg5
g34
ssS'var_6'
p40
(dp41
g16
I4
sg17
I16
sg18
I0
sg19
I-1
sg5
g34
ssS'var_5'
p42
(dp43
g16
I4
sg17
I12
sg18
I0
sg19
I-1
sg5
g34
ssS'var_4'
p44
(dp45
g16
I4
sg17
I8
sg18
I0
sg19
I-1
sg5
g34
ssS'var_3'
p46
(dp47
g16
I4
sg17
I4
sg18
I0
sg19
I-1
sg5
g34
ssS'var_2'
p48
(dp49
g16
I4
sg17
I-8
sg18
I0
sg19
I-1
sg5
g34
ssS'var_1'
p50
(dp51
g16
I4
sg17
I-12
sg18
I0
sg19
I-1
sg5
g34
sssg8
I-16
sg9
g2
sbs.