(dp0
S'global'
p1
(i__main__
activation_record
p2
(dp3
S'label'
p4
g1
sS'data'
p5
(dp6
S't_3'
p7
(dp8
g4
NsS'width'
p9
I4
sS'func_offset'
p10
I20
sS'isreg'
p11
I-1
sS'offset'
p12
NsS'type'
p13
NssS'var_4'
p14
(dp15
g4
g1
sg9
I4
sg10
I24
sg11
I-1
sg12
I20
sg13
(lp16
I3
assS't_1'
p17
(dp18
g4
Nsg9
I4
sg10
I0
sg11
I-1
sg12
Nsg13
NssS'var_3'
p19
(dp20
g4
g1
sg9
I12
sg10
I8
sg11
I-1
sg12
I8
sg13
(lp21
I2
aI3
aI3
assS'var_1'
p22
(dp23
g4
g1
sg9
I4
sg10
I4
sg11
I-1
sg12
I0
sg13
(lp24
I3
asssS'previous'
p25
NsbsS'main'
p26
(i__main__
activation_record
p27
(dp28
g4
g26
sg5
(dp29
S't_4'
p30
(dp31
g4
Nsg9
I4
sg10
I0
sg11
I-1
sg12
Nsg13
NssS't_5'
p32
(dp33
g4
Nsg9
I4
sg10
I4
sg11
I-1
sg12
Nsg13
Nsssg25
g2
sbsS'f'
p34
(i__main__
activation_record
p35
(dp36
g4
g34
sg5
(dp37
S't_2'
p38
(dp39
g4
Nsg9
I4
sg10
I0
sg11
I-1
sg12
Nsg13
NssS'var_2'
p40
(dp41
g4
g34
sg9
I4
sg10
I4
sg11
I-1
sg12
I0
sg13
(lp42
I3
asssg25
g2
sbs.