(dp0
S'global'
p1
(i__main__
activation_record
p2
(dp3
S'total'
p4
I28
sS'label'
p5
g1
sS'data'
p6
(dp7
S'var_3'
p8
(dp9
S'width'
p10
I0
sS'func_offset'
p11
I12
sS'isf'
p12
I0
sS'isreg'
p13
I-1
sg5
g1
ssS'var_2'
p14
(dp15
g10
I4
sg11
I8
sg12
I0
sg13
I-1
sg5
g1
ssS'var_1'
p16
(dp17
g10
I4
sg11
I4
sg12
I0
sg13
I-1
sg5
g1
sssS'ret_value_addr'
p18
NsS'previous'
p19
NsbsS'main'
p20
(i__main__
activation_record
p21
(dp22
g4
I8
sg5
g20
sg6
(dp23
S'var_5'
p24
(dp25
g10
I4
sg11
I8
sg12
I0
sg13
I-1
sg5
g20
ssS'var_4'
p26
(dp27
g10
I4
sg11
I4
sg12
I0
sg13
I-1
sg5
g20
sssg18
I-8
sg19
g2
sbs.