(dp0
S'global'
p1
(i__main__
activation_record
p2
(dp3
S'total'
p4
I28
sS'label'
p5
g1
sS'data'
p6
(dp7
S'var_3'
p8
(dp9
S'width'
p10
I0
sS'func_offset'
p11
I8
sS'isf'
p12
I0
sS'isreg'
p13
I-1
sg5
g1
ssS'var_2'
p14
(dp15
g10
I4
sg11
I4
sg12
I0
sg13
I-1
sg5
g1
ssS'var_1'
p16
(dp17
g10
I4
sg11
I0
sg12
I0
sg13
I-1
sg5
g1
sssS'previous'
p18
NsbsS'main'
p19
(i__main__
activation_record
p20
(dp21
g4
I8
sg5
g19
sg6
(dp22
S'var_5'
p23
(dp24
g10
I4
sg11
I4
sg12
I0
sg13
I-1
sg5
g19
ssS'var_4'
p25
(dp26
g10
I4
sg11
I0
sg12
I0
sg13
I-1
sg5
g19
sssg18
g2
sbs.