(lp0
(lp1
S'bst_insert'
p2
aS':'
p3
aa(lp4
S'=='
p5
aS'var_3'
p6
aS'var_1'
p7
aI0
aa(lp8
S'iffalse '
p9
ag6
aS' goto '
p10
aS'if_1.false'
p11
aa(lp12
S'='
p13
aS'var_4'
p14
aI12
aa(lp15
S'malloc'
p16
ag7
ag14
aa(lp17
g13
aS'var_1.0'
p18
aS'var_2'
p19
aa(lp20
S'return'
p21
ag7
aa(lp22
S'goto '
p23
aS'if_1.next'
p24
aa(lp25
S'if_1.false'
p26
ag3
aa(lp27
S'<=int'
p28
aS'var_5'
p29
aS'var_1.0'
p30
ag19
aa(lp31
g9
ag29
ag10
aS'if_2.false'
p32
aa(lp33
S'push'
p34
aa(lp35
g34
aS'var_1.8'
p36
aa(lp37
g34
ag19
aa(lp38
S'call'
p39
aS'bst_insert'
p40
aI2
aa(lp41
S'pop'
p42
aa(lp43
g42
aa(lp44
g42
aS'var_6'
p45
aa(lp46
g13
aS'var_1.8'
p47
ag45
aa(lp48
g23
aS'if_2.next'
p49
aa(lp50
S'if_2.false'
p51
ag3
aa(lp52
g34
aa(lp53
g34
aS'var_1.4'
p54
aa(lp55
g34
ag19
aa(lp56
g39
aS'bst_insert'
p57
aI2
aa(lp58
g42
aa(lp59
g42
aa(lp60
g42
aS'var_7'
p61
aa(lp62
g13
aS'var_1.4'
p63
ag61
aa(lp64
g49
aS': '
p65
aa(lp66
g21
ag7
aa(lp67
g24
ag65
aa(lp68
g21
aa(lp69
S'main'
p70
ag3
aa(lp71
g13
aS'var_9'
p72
aI0
aa(lp73
g13
aS'var_10'
p74
aI0
aa(lp75
g13
aS'var_11'
p76
ag74
aa(lp77
S'for_1'
p78
ag3
aa(lp79
g13
aS'var_12'
p80
aI5
aa(lp81
S'<int'
p82
aS'var_13'
p83
ag76
ag80
aa(lp84
S'iffalse '
p85
ag83
aS'goto '
p86
aS'for_1.next'
p87
aa(lp88
S'ScanInt'
p89
aS'var_8'
p90
aa(lp91
g34
aa(lp92
g34
ag72
aa(lp93
g34
ag90
aa(lp94
g39
aS'bst_insert'
p95
aI2
aa(lp96
g42
aa(lp97
g42
aa(lp98
g42
aS'var_15'
p99
aa(lp100
g13
ag72
ag99
aa(lp101
S'for_1.post'
p102
ag3
aa(lp103
g13
aS'var_14'
p104
aI1
aa(lp105
S'+'
p106
ag76
ag76
ag104
aa(lp107
g86
ag78
aa(lp108
S'for_1.next'
p109
ag3
aa(lp110
g13
ag72
aS'var_9.8'
p111
aa(lp112
S'printInt'
p113
aS'var_9.0'
p114
aa(lp115
S'returnm'
p116
aa.