(lp0
(lp1
S'='
p2
aS'var_1'
p3
aI5
aa(lp4
g2
aS'var_2'
p5
ag3
aa(lp6
S'main'
p7
aS':'
p8
aa(lp9
g2
aS'var_4'
p10
aI1
aa(lp11
g2
ag5
ag10
aa(lp12
g2
aS'var_5'
p13
aI0
aa(lp14
S'returnm'
p15
ag13
aa(lp16
g15
aa.