(lp0
(lp1
S'='
p2
aS't_1'
p3
aS'5'
p4
aa(lp5
g2
aS'var_1'
p6
ag3
aa(lp7
g2
aS't_3'
p8
aS'10'
p9
aa(lp10
g2
aS'var_4'
p11
ag8
aa(lp12
S'f'
p13
aS':'
p14
aa(lp15
g2
aS't_2'
p16
aS'0'
p17
aa(lp18
g2
aS'var_2'
p19
ag16
aa(lp20
S'return'
p21
ag19
aa(lp22
g21
aa(lp23
S'main'
p24
ag14
aa(lp25
S'push'
p26
aa(lp27
S'call'
p28
ag13
aI0
aa(lp29
S'pop'
p30
aS't_4'
p31
aa(lp32
g2
aS't_5'
p33
ag17
aa(lp34
g21
ag33
aa(lp35
g21
aa.